Certificate:
    Data:
        Version: 3 (0x2)
        Serial Number: 1 (0x1)
    Signature Algorithm: sha1WithRSAEncryption
        Issuer: C=US, ST=Unset, L=Unset, O=Unset, CN=www.example.com
        Validity
            Not Before: Jan 14 00:07:45 2014 GMT
            Not After : Jan 12 00:07:45 2024 GMT
        Subject: C=US, ST=Unset, O=Unset, CN=www.example.com
        Subject Public Key Info:
            Public Key Algorithm: rsaEncryption
                Public-Key: (2048 bit)
                Modulus:
                    00:cb:79:93:3a:1f:1d:55:8e:1c:d2:46:92:65:67:
                    6a:62:7f:81:4f:41:9f:e0:c0:49:a9:e1:c1:c1:b2:
                    da:c4:ec:10:e0:83:f1:9d:7e:64:d5:9b:e2:92:44:
                    44:d5:94:08:09:eb:07:7f:46:c7:f3:aa:fd:5b:ad:
                    1e:45:57:00:a9:16:cd:fe:c0:fd:db:66:89:02:31:
                    50:2d:8f:d5:41:2f:bb:c9:9a:69:94:a3:48:a3:86:
                    d4:4d:56:0a:79:1d:ef:fb:68:ae:cc:c4:5b:48:b4:
                    66:2b:81:a4:07:c1:4a:b6:33:e5:db:7e:35:c2:bf:
                    83:6f:08:d6:66:52:df:a3:ca:00:63:74:d6:b0:1e:
                    cc:5e:75:ee:60:db:a9:61:c4:25:1e:4c:66:0b:60:
                    6c:04:18:03:9b:45:a2:d7:ab:fa:fc:bf:4c:ff:da:
                    77:e3:b2:71:8a:6f:27:6c:7c:2a:fd:07:7b:e3:66:
                    e6:fd:ea:32:e4:68:5c:85:4c:a8:72:97:81:46:18:
                    d4:d4:72:7c:16:fe:0b:1e:ae:5a:24:d5:e6:e6:66:
                    a4:3c:7d:ae:a2:0a:11:1f:56:86:1b:99:7f:1d:23:
                    25:a1:e9:c2:1c:d9:d6:39:a1:11:fd:9d:8a:ad:c8:
                    e5:f9:94:6a:5a:cd:80:ce:0f:d3:9d:26:3c:12:02:
                    3c:45
                Exponent: 65537 (0x10001)
        X509v3 extensions:
            X509v3 Basic Constraints: 
                CA:FALSE
            X509v3 Subject Key Identifier: 
                FB:E0:69:3A:D2:43:0E:52:8F:3E:25:39:F8:BF:A9:82:B8:7D:68:46
            X509v3 Authority Key Identifier: 
                keyid:AA:5C:A5:04:DB:E9:42:18:0C:D3:1D:79:E0:EA:D7:20:31:95:A6:92

    Signature Algorithm: sha1WithRSAEncryption
         c9:13:f6:4f:96:10:54:7d:6a:15:41:6d:7a:57:81:68:fb:78:
         7b:83:01:aa:f0:71:2e:34:29:65:74:47:db:f8:9d:18:6b:b4:
         1d:a5:f3:5d:06:0c:3e:82:0c:1f:90:90:07:ff:6c:f5:8e:59:
         eb:15:5d:0d:b0:1d:59:03:48:d7:ce:70:53:b7:1f:62:88:6e:
         4e:22:36:f5:f8:42:56:e6:c0:e0:74:57:63:e4:b3:0c:40:05:
         3c:77:c0:90:ad:f5:41:1b:2e:46:41:9b:62:fb:37:9f:45:26:
         91:6c:1f:62:32:9d:b4:01:be:06:03:c6:97:6e:76:aa:8d:5f:
         c5:53:b5:89:50:97:fa:a5:14:62:59:83:39:c3:e9:22:2a:f8:
         7b:dc:1d:d4:99:a2:3c:b1:ac:3a:32:a1:16:52:3a:3c:85:e6:
         cd:28:d4:5b:ef:6e:9a:4e:b9:cf:9d:24:9f:a5:66:4b:e8:c3:
         1e:c9:d3:73:cb:80:9f:33:1e:ee:e4:91:c8:2a:27:5c:01:4c:
         55:b5:86:a1:30:a6:68:2e:98:de:72:ba:9f:f8:26:5e:43:3b:
         09:48:10:6c:7e:95:58:ee:c5:0a:ad:58:21:85:e6:d4:e6:7a:
         f4:b4:5b:69:25:5c:9a:24:a5:a1:6b:27:1f:bc:39:31:ca:bc:
         68:36:86:ea
-----BEGIN CERTIFICATE-----
MIIDZjCCAk6gAwIBAgIBATANBgkqhkiG9w0BAQUFADBXMQswCQYDVQQGEwJVUzEO
MAwGA1UECAwFVW5zZXQxDjAMBgNVBAcMBVVuc2V0MQ4wDAYDVQQKDAVVbnNldDEY
MBYGA1UEAwwPd3d3LmV4YW1wbGUuY29tMB4XDTE0MDExNDAwMDc0NVoXDTI0MDEx
MjAwMDc0NVowRzELMAkGA1UEBhMCVVMxDjAMBgNVBAgMBVVuc2V0MQ4wDAYDVQQK
DAVVbnNldDEYMBYGA1UEAwwPd3d3LmV4YW1wbGUuY29tMIIBIjANBgkqhkiG9w0B
AQEFAAOCAQ8AMIIBCgKCAQEAy3mTOh8dVY4c0kaSZWdqYn+BT0Gf4MBJqeHBwbLa
xOwQ4IPxnX5k1ZvikkRE1ZQICesHf0bH86r9W60eRVcAqRbN/sD922aJAjFQLY/V
QS+7yZpplKNIo4bUTVYKeR3v+2iuzMRbSLRmK4GkB8FKtjPl2341wr+DbwjWZlLf
o8oAY3TWsB7MXnXuYNupYcQlHkxmC2BsBBgDm0Wi16v6/L9M/9p347Jxim8nbHwq
/Qd742bm/eoy5GhchUyocpeBRhjU1HJ8Fv4LHq5aJNXm5makPH2uogoRH1aGG5l/
HSMloenCHNnWOaER/Z2Krcjl+ZRqWs2Azg/TnSY8EgI8RQIDAQABo00wSzAJBgNV
HRMEAjAAMB0GA1UdDgQWBBT74Gk60kMOUo8+JTn4v6mCuH1oRjAfBgNVHSMEGDAW
gBSqXKUE2+lCGAzTHXng6tcgMZWmkjANBgkqhkiG9w0BAQUFAAOCAQEAyRP2T5YQ
VH1qFUFteleBaPt4e4MBqvBxLjQpZXRH2/idGGu0HaXzXQYMPoIMH5CQB/9s9Y5Z
6xVdDbAdWQNI185wU7cfYohuTiI29fhCVubA4HRXY+SzDEAFPHfAkK31QRsuRkGb
Yvs3n0UmkWwfYjKdtAG+BgPGl252qo1fxVO1iVCX+qUUYlmDOcPpIir4e9wd1Jmi
PLGsOjKhFlI6PIXmzSjUW+9umk65z50kn6VmS+jDHsnTc8uAnzMe7uSRyConXAFM
VbWGoTCmaC6Y3nK6n/gmXkM7CUgQbH6VWO7FCq1YIYXm1OZ69LRbaSVcmiSloWsn
H7w5Mcq8aDaG6g==
-----END CERTIFICATE-----
